target datalayout = "e-m:e-p270:32:32-p271:32:32-p272:64:64-i64:64-i128:128-f80:128-n8:16:32:64-S128"
target triple = "x86_64-pc-linux-gnu"

; Function Attrs: nounwind uwtable
define i64 @av_strlcpy(ptr noundef %0, ptr noundef %1, i64 noundef %2) #0 {
  %4 = alloca ptr, align 8
  %5 = alloca ptr, align 8
  %6 = alloca i64, align 8
  %7 = alloca i64, align 8
  store ptr %0, ptr %4, align 8, !tbaa !4
  store ptr %1, ptr %5, align 8, !tbaa !4
  store i64 %2, ptr %6, align 8, !tbaa !19
  call void @llvm.lifetime.start.p0(i64 8, ptr %7) #11
  store i64 0, ptr %7, align 8, !tbaa !19
  br label %8

8:                                                ; preds = %20, %3
  %9 = load i64, ptr %7, align 8, !tbaa !19
  %10 = add i64 %9, 1
  store i64 %10, ptr %7, align 8, !tbaa !19
  %11 = load i64, ptr %6, align 8, !tbaa !19
  %12 = icmp ult i64 %10, %11
  br i1 %12, label %13, label %18

13:                                               ; preds = %8
  %14 = load ptr, ptr %5, align 8, !tbaa !4
  %15 = load i8, ptr %14, align 1, !tbaa !12
  %16 = sext i8 %15 to i32
  %17 = icmp ne i32 %16, 0
  br label %18

18:                                               ; preds = %13, %8
  %19 = phi i1 [ false, %8 ], [ %17, %13 ]
  br i1 %19, label %20, label %26

20:                                               ; preds = %18
  %21 = load ptr, ptr %5, align 8, !tbaa !4
  %22 = getelementptr inbounds nuw i8, ptr %21, i32 1
  store ptr %22, ptr %5, align 8, !tbaa !4
  %23 = load i8, ptr %21, align 1, !tbaa !12
  %24 = load ptr, ptr %4, align 8, !tbaa !4
  %25 = getelementptr inbounds nuw i8, ptr %24, i32 1
  store ptr %25, ptr %4, align 8, !tbaa !4
  store i8 %23, ptr %24, align 1, !tbaa !12
  br label %8, !llvm.loop !22

26:                                               ; preds = %18
  %27 = load i64, ptr %7, align 8, !tbaa !19
  %28 = load i64, ptr %6, align 8, !tbaa !19
  %29 = icmp ule i64 %27, %28
  br i1 %29, label %30, label %32

30:                                               ; preds = %26
  %31 = load ptr, ptr %4, align 8, !tbaa !4
  store i8 0, ptr %31, align 1, !tbaa !12
  br label %32

32:                                               ; preds = %30, %26
  %33 = load i64, ptr %7, align 8, !tbaa !19
  %34 = load ptr, ptr %5, align 8, !tbaa !4
  %35 = call i64 @strlen(ptr noundef %34) #12
  %36 = add i64 %33, %35
  %37 = sub i64 %36, 1
  call void @llvm.lifetime.end.p0(i64 8, ptr %7) #11
  ret i64 %37
}

; Function Attrs: nounwind uwtable
define i64 @av_strlcat(ptr noundef %0, ptr noundef %1, i64 noundef %2) #0 {
  %4 = alloca i64, align 8
  %5 = alloca ptr, align 8
  %6 = alloca ptr, align 8
  %7 = alloca i64, align 8
  %8 = alloca i64, align 8
  %9 = alloca i32, align 4
  store ptr %0, ptr %5, align 8, !tbaa !4
  store ptr %1, ptr %6, align 8, !tbaa !4
  store i64 %2, ptr %7, align 8, !tbaa !19
  call void @llvm.lifetime.start.p0(i64 8, ptr %8) #11
  %10 = load ptr, ptr %5, align 8, !tbaa !4
  %11 = call i64 @strlen(ptr noundef %10) #12
  store i64 %11, ptr %8, align 8, !tbaa !19
  %12 = load i64, ptr %7, align 8, !tbaa !19
  %13 = load i64, ptr %8, align 8, !tbaa !19
  %14 = add i64 %13, 1
  %15 = icmp ule i64 %12, %14
  br i1 %15, label %16, label %21

16:                                               ; preds = %3
  %17 = load i64, ptr %8, align 8, !tbaa !19
  %18 = load ptr, ptr %6, align 8, !tbaa !4
  %19 = call i64 @strlen(ptr noundef %18) #12
  %20 = add i64 %17, %19
  store i64 %20, ptr %4, align 8
  store i32 1, ptr %9, align 4
  br label %32

21:                                               ; preds = %3
  %22 = load i64, ptr %8, align 8, !tbaa !19
  %23 = load ptr, ptr %5, align 8, !tbaa !4
  %24 = load i64, ptr %8, align 8, !tbaa !19
  %25 = getelementptr inbounds nuw i8, ptr %23, i64 %24
  %26 = load ptr, ptr %6, align 8, !tbaa !4
  %27 = load i64, ptr %7, align 8, !tbaa !19
  %28 = load i64, ptr %8, align 8, !tbaa !19
  %29 = sub i64 %27, %28
  %30 = call i64 @av_strlcpy(ptr noundef %25, ptr noundef %26, i64 noundef %29)
  %31 = add i64 %22, %30
  store i64 %31, ptr %4, align 8
  store i32 1, ptr %9, align 4
  br label %32

32:                                               ; preds = %21, %16
  call void @llvm.lifetime.end.p0(i64 8, ptr %8) #11
  %33 = load i64, ptr %4, align 8
  ret i64 %33
}