; Function Attrs: nofree norecurse nounwind memory(argmem: readwrite) uwtable
define i64 @av_strlcat(ptr noundef captures(none) %0, ptr noundef readonly captures(none) %1, i64 noundef %2) local_unnamed_addr #5 {
  %4 = tail call i64 @strlen(ptr noundef nonnull dereferenceable(1) %0) #18
  %5 = add i64 %4, 1
  %.not = icmp ugt i64 %2, %5
  br i1 %.not, label %8, label %6

6:                                                ; preds = %3
  %7 = tail call i64 @strlen(ptr noundef nonnull dereferenceable(1) %1) #18
  br label %22

8:                                                ; preds = %3
  %9 = getelementptr inbounds nuw i8, ptr %0, i64 %4
  %10 = sub i64 %2, %4
  %11 = icmp ugt i64 %10, 1
  br i1 %11, label %.lr.ph.preheader.i, label %.critedge.i

.lr.ph.preheader.i:                               ; preds = %8
  %12 = add i64 %10, -1
  %13 = load i8, ptr %1, align 1, !tbaa !4
  %.not.i18 = icmp eq i8 %13, 0
  br i1 %.not.i18, label %.critedge.i, label %.lr.ph

.lr.ph.i:                                         ; preds = %.lr.ph
  %14 = load i8, ptr %17, align 1, !tbaa !4
  %.not.i = icmp eq i8 %14, 0
  br i1 %.not.i, label %.critedge.i, label %.lr.ph, !llvm.loop !15

.lr.ph:                                           ; preds = %.lr.ph.preheader.i, %.lr.ph.i
  %15 = phi i8 [ %14, %.lr.ph.i ], [ %13, %.lr.ph.preheader.i ]
  %.01013.i20 = phi ptr [ %17, %.lr.ph.i ], [ %1, %.lr.ph.preheader.i ]
  %.0914.i19 = phi ptr [ %18, %.lr.ph.i ], [ %9, %.lr.ph.preheader.i ]
  %16 = phi i64 [ %19, %.lr.ph.i ], [ 1, %.lr.ph.preheader.i ]
  %17 = getelementptr inbounds nuw i8, ptr %.01013.i20, i64 1
  %18 = getelementptr inbounds nuw i8, ptr %.0914.i19, i64 1
  store i8 %15, ptr %.0914.i19, align 1, !tbaa !4
  %19 = add nuw i64 %16, 1
  %exitcond.not.i = icmp eq i64 %19, %10
  br i1 %exitcond.not.i, label %.critedge.thread.i, label %.lr.ph.i, !llvm.loop !15

.critedge.i:                                      ; preds = %.lr.ph.i, %.lr.ph.preheader.i, %8
  %.010.lcssa.i = phi ptr [ %1, %8 ], [ %1, %.lr.ph.preheader.i ], [ %17, %.lr.ph.i ]
  %.09.lcssa.i = phi ptr [ %9, %8 ], [ %9, %.lr.ph.preheader.i ], [ %18, %.lr.ph.i ]
  %.0.lcssa.i = phi i64 [ 0, %8 ], [ 0, %.lr.ph.preheader.i ], [ %16, %.lr.ph.i ]
  %.lcssa.i = phi i64 [ 1, %8 ], [ 1, %.lr.ph.preheader.i ], [ %19, %.lr.ph.i ]
  %.not12.i = icmp ugt i64 %.lcssa.i, %10
  br i1 %.not12.i, label %av_strlcpy.exit, label %.critedge.thread.i

.critedge.thread.i:                               ; preds = %.lr.ph, %.critedge.i
  %.0.lcssa32.i = phi i64 [ %.0.lcssa.i, %.critedge.i ], [ %12, %.lr.ph ]
  %.09.lcssa31.i = phi ptr [ %.09.lcssa.i, %.critedge.i ], [ %18, %.lr.ph ]
  %.010.lcssa29.i = phi ptr [ %.010.lcssa.i, %.critedge.i ], [ %17, %.lr.ph ]
  store i8 0, ptr %.09.lcssa31.i, align 1, !tbaa !4
  br label %av_strlcpy.exit

av_strlcpy.exit:                                  ; preds = %.critedge.i, %.critedge.thread.i
  %.0.lcssa33.i = phi i64 [ %.0.lcssa32.i, %.critedge.thread.i ], [ %.0.lcssa.i, %.critedge.i ]
  %.010.lcssa30.i = phi ptr [ %.010.lcssa29.i, %.critedge.thread.i ], [ %.010.lcssa.i, %.critedge.i ]
  %20 = tail call i64 @strlen(ptr noundef nonnull dereferenceable(1) %.010.lcssa30.i) #18
  %21 = add i64 %20, %.0.lcssa33.i
  br label %22

22:                                               ; preds = %av_strlcpy.exit, %6
  %.pn = phi i64 [ %7, %6 ], [ %21, %av_strlcpy.exit ]
  %.0 = add i64 %.pn, %4
  ret i64 %.0
}